ccopy_reg
_reconstructor
p1
(cthe_fluid_solver_2d
The_Fluid_Solver_2D
p2
c__builtin__
object
p3
NtRp4
(dp5
S'LABEL'
p6
S'ot_vortex'
p7
sS'ETA'
p8
I0
sS'DZ'
p9
S'NA'
p10
sS'DX'
p11
F0.02
sS'DY'
p12
F0.02
sS'XMIN'
p13
F0
sS'DT'
p14
F0.00050000000000000001
sS'YMIN'
p15
F0
sS'MU'
p16
F1
sS'PLT_TYP'
p17
S'quiver pcolormesh concentration and mag'
p18
sS'NX'
p19
I51
sS'NY'
p20
I51
sS'NZ'
p21
g10
sS'XMAX'
p22
F1
sS'NT'
p23
I2100
sS'NU'
p24
I0
sS'NI'
p25
I200
sS'S'
F0.10000000000000001
sS'YMAX'
p26
F1
sS'cycle_start'
p27
I1
sS'SAVE_FREQ'
p28
I20
sS'RHO'
p29
F0.22104853207207686
sS'MAX_CYC_MAG'
p30
I9
sb.